(dp0
S'feature 1'
p1
(dp2
cnumpy.core.multiarray
scalar
p3
(cnumpy
dtype
p4
(S'S1'
p5
I0
I1
tp6
Rp7
(I3
S'|'
p8
NNNI1
I1
I0
tp9
bS'1'
p10
tp11
Rp12
S'DataSet in same class:B'
p13
sg3
(g4
(S'S1'
p14
I0
I1
tp15
Rp16
(I3
S'|'
p17
NNNI1
I1
I0
tp18
bS'3'
p19
tp20
Rp21
S'DataSet in same class:B'
p22
sg3
(g4
(S'S1'
p23
I0
I1
tp24
Rp25
(I3
S'|'
p26
NNNI1
I1
I0
tp27
bS'2'
p28
tp29
Rp30
(dp31
S'feature 2'
p32
(dp33
g3
(g4
(S'S1'
p34
I0
I1
tp35
Rp36
(I3
S'|'
p37
NNNI1
I1
I0
tp38
bg10
tp39
Rp40
S'Majority count:A'
p41
sg3
(g4
(S'S1'
p42
I0
I1
tp43
Rp44
(I3
S'|'
p45
NNNI1
I1
I0
tp46
bg19
tp47
Rp48
S'DataSet in same class:A'
p49
ssss.